target datalayout = "e-m:e-p270:32:32-p271:32:32-p272:64:64-i64:64-i128:128-f80:128-n8:16:32:64-S128"
target triple = "x86_64-pc-linux-gnu"

%"class.casadi::MX" = type { %"class.casadi::SharedObject" }
%"class.casadi::SharedObject" = type { ptr }
%"class.casadi::Sparsity" = type { %"class.casadi::SharedObject" }
%"struct.std::_Vector_base" = type { %"struct.std::_Vector_base<casadi::MX, std::allocator<casadi::MX>>::_Vector_impl" }
%"struct.std::_Vector_base<casadi::MX, std::allocator<casadi::MX>>::_Vector_impl" = type { %"struct.std::_Vector_base<casadi::MX, std::allocator<casadi::MX>>::_Vector_impl_data" }
%"struct.std::_Vector_base<casadi::MX, std::allocator<casadi::MX>>::_Vector_impl_data" = type { ptr, ptr, ptr }
%"class.std::vector" = type { %"struct.std::_Vector_base" }
%"class.casadi::MXNode" = type { %"class.casadi::SharedObjectInternal", i64, %"class.std::vector", %"class.casadi::Sparsity" }
%"class.casadi::SharedObjectInternal" = type { ptr, i64, ptr }

@.str.15 = private unnamed_addr constant [74 x i8] c"vector::_M_range_check: __n (which is %zu) >= this->size() (which is %zu)\00", align 1

; Function Attrs: mustprogress nounwind uwtable
define linkonce_odr hidden noundef i64 @_ZNKSt6vectorIN6casadi2MXESaIS1_EE4sizeEv(ptr noundef nonnull align 8 dereferenceable(24) %0) #5 comdat align 2 {
  %2 = alloca ptr, align 8
  store ptr %0, ptr %2, align 8
  %3 = load ptr, ptr %2, align 8
  %4 = getelementptr inbounds %"struct.std::_Vector_base", ptr %3, i32 0, i32 0
  %5 = getelementptr inbounds %"struct.std::_Vector_base<casadi::MX, std::allocator<casadi::MX>>::_Vector_impl_data", ptr %4, i32 0, i32 1
  %6 = load ptr, ptr %5, align 8
  %7 = getelementptr inbounds %"struct.std::_Vector_base", ptr %3, i32 0, i32 0
  %8 = getelementptr inbounds %"struct.std::_Vector_base<casadi::MX, std::allocator<casadi::MX>>::_Vector_impl_data", ptr %7, i32 0, i32 0
  %9 = load ptr, ptr %8, align 8
  %10 = ptrtoint ptr %6 to i64
  %11 = ptrtoint ptr %9 to i64
  %12 = sub i64 %10, %11
  %13 = sdiv exact i64 %12, 8
  ret i64 %13
}

; Function Attrs: mustprogress nounwind uwtable
define linkonce_odr hidden noundef nonnull align 8 dereferenceable(8) ptr @_ZNKSt6vectorIN6casadi2MXESaIS1_EEixEm(ptr noundef nonnull align 8 dereferenceable(24) %0, i64 noundef %1) #5 comdat align 2 {
  %3 = alloca ptr, align 8
  %4 = alloca i64, align 8
  store ptr %0, ptr %3, align 8
  store i64 %1, ptr %4, align 8
  %5 = load ptr, ptr %3, align 8
  %6 = getelementptr inbounds %"struct.std::_Vector_base", ptr %5, i32 0, i32 0
  %7 = getelementptr inbounds %"struct.std::_Vector_base<casadi::MX, std::allocator<casadi::MX>>::_Vector_impl_data", ptr %6, i32 0, i32 0
  %8 = load ptr, ptr %7, align 8
  %9 = load i64, ptr %4, align 8
  %10 = getelementptr inbounds %"class.casadi::MX", ptr %8, i64 %9
  ret ptr %10
}

; Function Attrs: mustprogress uwtable
define linkonce_odr hidden void @_ZNKSt6vectorIN6casadi2MXESaIS1_EE14_M_range_checkEm(ptr noundef nonnull align 8 dereferenceable(24) %0, i64 noundef %1) #4 comdat align 2 {
  %3 = alloca ptr, align 8
  %4 = alloca i64, align 8
  store ptr %0, ptr %3, align 8
  store i64 %1, ptr %4, align 8
  %5 = load ptr, ptr %3, align 8
  %6 = load i64, ptr %4, align 8
  %7 = call noundef i64 @_ZNKSt6vectorIN6casadi2MXESaIS1_EE4sizeEv(ptr noundef nonnull align 8 dereferenceable(24) %5) #3
  %8 = icmp uge i64 %6, %7
  br i1 %8, label %9, label %12

9:                                                ; preds = %2
  %10 = load i64, ptr %4, align 8
  %11 = call noundef i64 @_ZNKSt6vectorIN6casadi2MXESaIS1_EE4sizeEv(ptr noundef nonnull align 8 dereferenceable(24) %5) #3
  call void (ptr, ...) @_ZSt24__throw_out_of_range_fmtPKcz(ptr noundef @.str.15, i64 noundef %10, i64 noundef %11) #11
  unreachable

12:                                               ; preds = %2
  ret void
}

; Function Attrs: mustprogress uwtable
define linkonce_odr hidden noundef nonnull align 8 dereferenceable(8) ptr @_ZNKSt6vectorIN6casadi2MXESaIS1_EE2atEm(ptr noundef nonnull align 8 dereferenceable(24) %0, i64 noundef %1) #4 comdat align 2 {
  %3 = alloca ptr, align 8
  %4 = alloca i64, align 8
  store ptr %0, ptr %3, align 8
  store i64 %1, ptr %4, align 8
  %5 = load ptr, ptr %3, align 8
  %6 = load i64, ptr %4, align 8
  call void @_ZNKSt6vectorIN6casadi2MXESaIS1_EE14_M_range_checkEm(ptr noundef nonnull align 8 dereferenceable(24) %5, i64 noundef %6)
  %7 = load i64, ptr %4, align 8
  %8 = call noundef nonnull align 8 dereferenceable(8) ptr @_ZNKSt6vectorIN6casadi2MXESaIS1_EEixEm(ptr noundef nonnull align 8 dereferenceable(24) %5, i64 noundef %7) #3
  ret ptr %8
}

; Function Attrs: mustprogress nounwind uwtable
define linkonce_odr hidden noundef double @_ZN6casadi12casadi_bilinIdEET_PKS1_PKxS3_S3_(ptr noundef %0, ptr noundef %1, ptr noundef %2, ptr noundef %3) #5 comdat {
  %5 = alloca ptr, align 8
  %6 = alloca ptr, align 8
  %7 = alloca ptr, align 8
  %8 = alloca ptr, align 8
  %9 = alloca i64, align 8
  %10 = alloca i64, align 8
  %11 = alloca i64, align 8
  %12 = alloca i64, align 8
  %13 = alloca ptr, align 8
  %14 = alloca ptr, align 8
  %15 = alloca double, align 8
  store ptr %0, ptr %5, align 8
  store ptr %1, ptr %6, align 8
  store ptr %2, ptr %7, align 8
  store ptr %3, ptr %8, align 8
  %16 = load ptr, ptr %6, align 8
  %17 = getelementptr inbounds i64, ptr %16, i64 1
  %18 = load i64, ptr %17, align 8
  store i64 %18, ptr %9, align 8
  %19 = load ptr, ptr %6, align 8
  %20 = getelementptr inbounds i64, ptr %19, i64 2
  store ptr %20, ptr %13, align 8
  %21 = load ptr, ptr %6, align 8
  %22 = getelementptr inbounds i64, ptr %21, i64 2
  %23 = load i64, ptr %9, align 8
  %24 = getelementptr inbounds i64, ptr %22, i64 %23
  %25 = getelementptr inbounds i64, ptr %24, i64 1
  store ptr %25, ptr %14, align 8
  store double 0.000000e+00, ptr %15, align 8
  store i64 0, ptr %10, align 8
  br label %26

26:                                               ; preds = %67, %4
  %27 = load i64, ptr %10, align 8
  %28 = load i64, ptr %9, align 8
  %29 = icmp slt i64 %27, %28
  br i1 %29, label %30, label %70

30:                                               ; preds = %26
  %31 = load ptr, ptr %13, align 8
  %32 = load i64, ptr %10, align 8
  %33 = getelementptr inbounds i64, ptr %31, i64 %32
  %34 = load i64, ptr %33, align 8
  store i64 %34, ptr %12, align 8
  br label %35

35:                                               ; preds = %63, %30
  %36 = load i64, ptr %12, align 8
  %37 = load ptr, ptr %13, align 8
  %38 = load i64, ptr %10, align 8
  %39 = add nsw i64 %38, 1
  %40 = getelementptr inbounds i64, ptr %37, i64 %39
  %41 = load i64, ptr %40, align 8
  %42 = icmp slt i64 %36, %41
  br i1 %42, label %43, label %66

43:                                               ; preds = %35
  %44 = load ptr, ptr %14, align 8
  %45 = load i64, ptr %12, align 8
  %46 = getelementptr inbounds i64, ptr %44, i64 %45
  %47 = load i64, ptr %46, align 8
  store i64 %47, ptr %11, align 8
  %48 = load ptr, ptr %7, align 8
  %49 = load i64, ptr %11, align 8
  %50 = getelementptr inbounds double, ptr %48, i64 %49
  %51 = load double, ptr %50, align 8
  %52 = load ptr, ptr %5, align 8
  %53 = load i64, ptr %12, align 8
  %54 = getelementptr inbounds double, ptr %52, i64 %53
  %55 = load double, ptr %54, align 8
  %56 = fmul double %51, %55
  %57 = load ptr, ptr %8, align 8
  %58 = load i64, ptr %10, align 8
  %59 = getelementptr inbounds double, ptr %57, i64 %58
  %60 = load double, ptr %59, align 8
  %61 = load double, ptr %15, align 8
  %62 = call double @llvm.fmuladd.f64(double %56, double %60, double %61)
  store double %62, ptr %15, align 8
  br label %63

63:                                               ; preds = %43
  %64 = load i64, ptr %12, align 8
  %65 = add nsw i64 %64, 1
  store i64 %65, ptr %12, align 8
  br label %35, !llvm.loop !12

66:                                               ; preds = %35
  br label %67

67:                                               ; preds = %66
  %68 = load i64, ptr %10, align 8
  %69 = add nsw i64 %68, 1
  store i64 %69, ptr %10, align 8
  br label %26, !llvm.loop !13

70:                                               ; preds = %26
  %71 = load double, ptr %15, align 8
  ret double %71
}

; Function Attrs: mustprogress uwtable
define linkonce_odr hidden noundef nonnull align 8 dereferenceable(8) ptr @_ZNK6casadi6MXNode3depEx(ptr noundef nonnull align 8 dereferenceable(64) %0, i64 noundef %1) #4 comdat align 2 {
  %3 = alloca ptr, align 8
  %4 = alloca i64, align 8
  store ptr %0, ptr %3, align 8
  store i64 %1, ptr %4, align 8
  %5 = load ptr, ptr %3, align 8
  %6 = getelementptr inbounds %"class.casadi::MXNode", ptr %5, i32 0, i32 2
  %7 = load i64, ptr %4, align 8
  %8 = call noundef nonnull align 8 dereferenceable(8) ptr @_ZNKSt6vectorIN6casadi2MXESaIS1_EE2atEm(ptr noundef nonnull align 8 dereferenceable(24) %6, i64 noundef %7)
  ret ptr %8
}

; Function Attrs: mustprogress uwtable
define linkonce_odr noundef i32 @_ZNK6casadi5Bilin8eval_genIdEEiPPKT_PPS2_PxS6_(ptr noundef nonnull align 8 dereferenceable(64) %0, ptr noundef %1, ptr noundef %2, ptr noundef %3, ptr noundef %4) #4 comdat align 2 {
  %6 = alloca ptr, align 8
  %7 = alloca ptr, align 8
  %8 = alloca ptr, align 8
  %9 = alloca ptr, align 8
  %10 = alloca ptr, align 8
  store ptr %0, ptr %6, align 8
  store ptr %1, ptr %7, align 8
  store ptr %2, ptr %8, align 8
  store ptr %3, ptr %9, align 8
  store ptr %4, ptr %10, align 8
  %11 = load ptr, ptr %6, align 8
  %12 = load ptr, ptr %7, align 8
  %13 = getelementptr inbounds ptr, ptr %12, i64 0
  %14 = load ptr, ptr %13, align 8
  %15 = call noundef nonnull align 8 dereferenceable(8) ptr @_ZNK6casadi6MXNode3depEx(ptr noundef nonnull align 8 dereferenceable(64) %11, i64 noundef 0)
  %16 = call noundef nonnull align 8 dereferenceable(8) ptr @_ZNK6casadi2MX8sparsityEv(ptr noundef nonnull align 8 dereferenceable(8) %15)
  %17 = call noundef ptr @_ZNK6casadi8SparsitycvPKxEv(ptr noundef nonnull align 8 dereferenceable(8) %16)
  %18 = load ptr, ptr %7, align 8
  %19 = getelementptr inbounds ptr, ptr %18, i64 1
  %20 = load ptr, ptr %19, align 8
  %21 = load ptr, ptr %7, align 8
  %22 = getelementptr inbounds ptr, ptr %21, i64 2
  %23 = load ptr, ptr %22, align 8
  %24 = call noundef double @_ZN6casadi12casadi_bilinIdEET_PKS1_PKxS3_S3_(ptr noundef %14, ptr noundef %17, ptr noundef %20, ptr noundef %23)
  %25 = load ptr, ptr %8, align 8
  %26 = getelementptr inbounds ptr, ptr %25, i64 0
  %27 = load ptr, ptr %26, align 8
  store double %24, ptr %27, align 8
  ret i32 0
}

; Function Attrs: mustprogress uwtable
define noundef i32 @_ZNK6casadi5Bilin4evalEPPKdPPdPxS4_(ptr noundef nonnull align 8 dereferenceable(64) %0, ptr noundef %1, ptr noundef %2, ptr noundef %3, ptr noundef %4) unnamed_addr #4 align 2 {
  %6 = alloca ptr, align 8
  %7 = alloca ptr, align 8
  %8 = alloca ptr, align 8
  %9 = alloca ptr, align 8
  %10 = alloca ptr, align 8
  store ptr %0, ptr %6, align 8
  store ptr %1, ptr %7, align 8
  store ptr %2, ptr %8, align 8
  store ptr %3, ptr %9, align 8
  store ptr %4, ptr %10, align 8
  %11 = load ptr, ptr %6, align 8
  %12 = load ptr, ptr %7, align 8
  %13 = load ptr, ptr %8, align 8
  %14 = load ptr, ptr %9, align 8
  %15 = load ptr, ptr %10, align 8
  %16 = call noundef i32 @_ZNK6casadi5Bilin8eval_genIdEEiPPKT_PPS2_PxS6_(ptr noundef nonnull align 8 dereferenceable(64) %11, ptr noundef %12, ptr noundef %13, ptr noundef %14, ptr noundef %15)
  ret i32 %16
}