; Function Attrs: mustprogress uwtable
define noundef i32 @_ZNK6casadi5Bilin4evalEPPKdPPdPxS4_(ptr nocapture noundef nonnull readonly align 8 dereferenceable(64) %0, ptr nocapture noundef readonly %1, ptr nocapture noundef readonly %2, ptr nocapture readnone %3, ptr nocapture readnone %4) unnamed_addr #3 align 2 {
  %6 = load ptr, ptr %1, align 8
  %7 = getelementptr inbounds i8, ptr %0, i64 32
  %8 = getelementptr inbounds i8, ptr %0, i64 40
  %9 = load ptr, ptr %8, align 8
  %10 = load ptr, ptr %7, align 8
  %.not.i.i.i.not.i = icmp eq ptr %9, %10
  br i1 %.not.i.i.i.not.i, label %11, label %_ZNK6casadi6MXNode3depEx.exit.i

11:                                               ; preds = %5
  tail call void (ptr, ...) @_ZSt24__throw_out_of_range_fmtPKcz(ptr noundef nonnull @.str.15, i64 noundef 0, i64 noundef 0) #14
  unreachable

_ZNK6casadi6MXNode3depEx.exit.i:                  ; preds = %5
  %12 = tail call noundef nonnull align 8 dereferenceable(8) ptr @_ZNK6casadi2MX8sparsityEv(ptr noundef nonnull align 8 dereferenceable(8) %10)
  %13 = tail call noundef ptr @_ZNK6casadi8SparsitycvPKxEv(ptr noundef nonnull align 8 dereferenceable(8) %12)
  %14 = getelementptr inbounds i8, ptr %1, i64 8
  %15 = load ptr, ptr %14, align 8
  %16 = getelementptr inbounds i8, ptr %1, i64 16
  %17 = load ptr, ptr %16, align 8
  %18 = getelementptr inbounds i8, ptr %13, i64 8
  %19 = load i64, ptr %18, align 8
  %20 = getelementptr inbounds i8, ptr %13, i64 16
  %21 = getelementptr inbounds i64, ptr %20, i64 %19
  %22 = getelementptr inbounds i8, ptr %21, i64 8
  %23 = icmp sgt i64 %19, 0
  br i1 %23, label %.lr.ph29.preheader.i.i, label %_ZNK6casadi5Bilin8eval_genIdEEiPPKT_PPS2_PxS6_.exit

.lr.ph29.preheader.i.i:                           ; preds = %_ZNK6casadi6MXNode3depEx.exit.i
  %.pre.i.i = load i64, ptr %20, align 8
  br label %.lr.ph29.i.i

.loopexit.i.i:                                    ; preds = %31, %.lr.ph29.i.i
  %.1.lcssa.i.i = phi double [ %.028.i.i, %.lr.ph29.i.i ], [ %39, %31 ]
  %exitcond31.not.i.i = icmp eq i64 %25, %19
  br i1 %exitcond31.not.i.i, label %_ZNK6casadi5Bilin8eval_genIdEEiPPKT_PPS2_PxS6_.exit, label %.lr.ph29.i.i, !llvm.loop !14

.lr.ph29.i.i:                                     ; preds = %.loopexit.i.i, %.lr.ph29.preheader.i.i
  %24 = phi i64 [ %27, %.loopexit.i.i ], [ %.pre.i.i, %.lr.ph29.preheader.i.i ]
  %.028.i.i = phi double [ %.1.lcssa.i.i, %.loopexit.i.i ], [ 0.000000e+00, %.lr.ph29.preheader.i.i ]
  %.02227.i.i = phi i64 [ %25, %.loopexit.i.i ], [ 0, %.lr.ph29.preheader.i.i ]
  %25 = add nuw nsw i64 %.02227.i.i, 1
  %26 = getelementptr inbounds i64, ptr %20, i64 %25
  %27 = load i64, ptr %26, align 8
  %28 = icmp slt i64 %24, %27
  br i1 %28, label %.lr.ph.i.i, label %.loopexit.i.i

.lr.ph.i.i:                                       ; preds = %.lr.ph29.i.i
  %29 = getelementptr inbounds double, ptr %17, i64 %.02227.i.i
  %30 = load double, ptr %29, align 8
  br label %31

31:                                               ; preds = %31, %.lr.ph.i.i
  %.125.i.i = phi double [ %.028.i.i, %.lr.ph.i.i ], [ %39, %31 ]
  %.02324.i.i = phi i64 [ %24, %.lr.ph.i.i ], [ %40, %31 ]
  %32 = getelementptr inbounds i64, ptr %22, i64 %.02324.i.i
  %33 = load i64, ptr %32, align 8
  %34 = getelementptr inbounds double, ptr %15, i64 %33
  %35 = load double, ptr %34, align 8
  %36 = getelementptr inbounds double, ptr %6, i64 %.02324.i.i
  %37 = load double, ptr %36, align 8
  %38 = fmul double %35, %37
  %39 = tail call double @llvm.fmuladd.f64(double %38, double %30, double %.125.i.i)
  %40 = add nsw i64 %.02324.i.i, 1
  %exitcond.not.i.i = icmp eq i64 %40, %27
  br i1 %exitcond.not.i.i, label %.loopexit.i.i, label %31, !llvm.loop !15

_ZNK6casadi5Bilin8eval_genIdEEiPPKT_PPS2_PxS6_.exit: ; preds = %.loopexit.i.i, %_ZNK6casadi6MXNode3depEx.exit.i
  %.0.lcssa.i.i = phi double [ 0.000000e+00, %_ZNK6casadi6MXNode3depEx.exit.i ], [ %.1.lcssa.i.i, %.loopexit.i.i ]
  %41 = load ptr, ptr %2, align 8
  store double %.0.lcssa.i.i, ptr %41, align 8
  ret i32 0
}